target datalayout = "e-m:e-p270:32:32-p271:32:32-p272:64:64-i64:64-i128:128-f80:128-n8:16:32:64-S128"
target triple = "x86_64-pc-linux-gnu"

%struct.helper = type { ptr, %struct.ossl_quic_tx_packetiser_args_st, %struct.ossl_qtx_args_st, ptr, ptr, %struct.quic_txfc_st, %struct.quic_rxfc_st, %struct.quic_rxfc_st, %struct.quic_rxfc_st, %struct.quic_rxfc_st, %struct.ossl_statm_st, ptr, ptr, %struct.quic_stream_map_st, i8, i8, ptr, ptr, %struct.ossl_qrx_args_st, ptr, %struct.PACKET, i64, %union.anon.0, [16 x %struct.ossl_quic_ack_range_st] }
%struct.ossl_quic_tx_packetiser_args_st = type { %struct.quic_conn_id_st, %struct.quic_conn_id_st, %union.bio_addr_st, i32, ptr, ptr, ptr, ptr, ptr, ptr, ptr, ptr, ptr, ptr, ptr, ptr, ptr, ptr, ptr, i32, [3 x ptr] }
%struct.quic_conn_id_st = type { i8, [20 x i8] }
%union.bio_addr_st = type { %struct.sockaddr_in6, [84 x i8] }
%struct.sockaddr_in6 = type { i16, i16, i32, %struct.in6_addr, i32 }
%struct.in6_addr = type { %union.anon }
%union.anon = type { [4 x i32] }
%struct.ossl_qtx_args_st = type { ptr, ptr, ptr, i64, ptr, ptr }
%struct.quic_txfc_st = type { ptr, i64, i64, i8 }
%struct.quic_rxfc_st = type { i64, i64, i64, i64, i64, i64, i64, %struct.OSSL_TIME, ptr, ptr, ptr, i8, i8, i8, i8 }
%struct.OSSL_TIME = type { i64 }
%struct.ossl_statm_st = type { %struct.OSSL_TIME, %struct.OSSL_TIME, %struct.OSSL_TIME, %struct.OSSL_TIME, i8 }
%struct.quic_stream_map_st = type { ptr, %struct.quic_stream_list_node_st, %struct.quic_stream_list_node_st, %struct.quic_stream_list_node_st, i64, i64, i64, i64, i64, ptr, ptr, ptr, ptr, ptr, i32 }
%struct.quic_stream_list_node_st = type { ptr, ptr }
%struct.ossl_qrx_args_st = type { ptr, ptr, ptr, i64, i64, [3 x i64], i8 }
%struct.PACKET = type { ptr, i64 }
%union.anon.0 = type { %struct.ossl_quic_frame_new_conn_id_st }
%struct.ossl_quic_frame_new_conn_id_st = type { i64, i64, %struct.quic_conn_id_st, %struct.QUIC_STATELESS_RESET_TOKEN }
%struct.QUIC_STATELESS_RESET_TOKEN = type { [16 x i8] }
%struct.ossl_quic_ack_range_st = type { i64, i64 }

@dcid_1 = internal constant { i8, <{ [8 x i8], [12 x i8] }> } { i8 8, <{ [8 x i8], [12 x i8] }> <{ [8 x i8] c"\A1\A2\A3\A4\A5\A6\A7\A8", [12 x i8] zeroinitializer }> }, align 1

; Function Attrs: inlinehint nounwind uwtable
define internal i32 @ossl_quic_conn_id_eq(ptr noundef %0, ptr noundef %1) #3 {
  %3 = alloca i32, align 4
  %4 = alloca ptr, align 8
  %5 = alloca ptr, align 8
  store ptr %0, ptr %4, align 8, !tbaa !120
  store ptr %1, ptr %5, align 8, !tbaa !120
  %6 = load ptr, ptr %4, align 8, !tbaa !120
  %7 = getelementptr inbounds nuw %struct.quic_conn_id_st, ptr %6, i32 0, i32 0
  %8 = load i8, ptr %7, align 1, !tbaa !122
  %9 = zext i8 %8 to i32
  %10 = load ptr, ptr %5, align 8, !tbaa !120
  %11 = getelementptr inbounds nuw %struct.quic_conn_id_st, ptr %10, i32 0, i32 0
  %12 = load i8, ptr %11, align 1, !tbaa !122
  %13 = zext i8 %12 to i32
  %14 = icmp ne i32 %9, %13
  br i1 %14, label %21, label %15

15:                                               ; preds = %2
  %16 = load ptr, ptr %4, align 8, !tbaa !120
  %17 = getelementptr inbounds nuw %struct.quic_conn_id_st, ptr %16, i32 0, i32 0
  %18 = load i8, ptr %17, align 1, !tbaa !122
  %19 = zext i8 %18 to i32
  %20 = icmp sgt i32 %19, 20
  br i1 %20, label %21, label %22

21:                                               ; preds = %15, %2
  store i32 0, ptr %3, align 4
  br label %36

22:                                               ; preds = %15
  %23 = load ptr, ptr %4, align 8, !tbaa !120
  %24 = getelementptr inbounds nuw %struct.quic_conn_id_st, ptr %23, i32 0, i32 1
  %25 = getelementptr inbounds [20 x i8], ptr %24, i64 0, i64 0
  %26 = load ptr, ptr %5, align 8, !tbaa !120
  %27 = getelementptr inbounds nuw %struct.quic_conn_id_st, ptr %26, i32 0, i32 1
  %28 = getelementptr inbounds [20 x i8], ptr %27, i64 0, i64 0
  %29 = load ptr, ptr %4, align 8, !tbaa !120
  %30 = getelementptr inbounds nuw %struct.quic_conn_id_st, ptr %29, i32 0, i32 0
  %31 = load i8, ptr %30, align 1, !tbaa !122
  %32 = zext i8 %31 to i64
  %33 = call i32 @memcmp(ptr noundef %25, ptr noundef %28, i64 noundef %32) #8
  %34 = icmp eq i32 %33, 0
  %35 = zext i1 %34 to i32
  store i32 %35, ptr %3, align 4
  br label %36

36:                                               ; preds = %22, %21
  %37 = load i32, ptr %3, align 4
  ret i32 %37
}

; Function Attrs: nounwind uwtable
define internal void @demux_default_handler(ptr noundef %0, ptr noundef %1, ptr noundef %2) #0 {
  %4 = alloca ptr, align 8
  %5 = alloca ptr, align 8
  %6 = alloca ptr, align 8
  %7 = alloca ptr, align 8
  %8 = alloca i32, align 4
  store ptr %0, ptr %4, align 8, !tbaa !118
  store ptr %1, ptr %5, align 8, !tbaa !109
  store ptr %2, ptr %6, align 8, !tbaa !120
  call void @llvm.lifetime.start.p0(i64 8, ptr %7) #7
  %9 = load ptr, ptr %5, align 8, !tbaa !109
  store ptr %9, ptr %7, align 8, !tbaa !82
  %10 = load ptr, ptr %6, align 8, !tbaa !120
  %11 = icmp eq ptr %10, null
  br i1 %11, label %16, label %12

12:                                               ; preds = %3
  %13 = load ptr, ptr %6, align 8, !tbaa !120
  %14 = call i32 @ossl_quic_conn_id_eq(ptr noundef %13, ptr noundef @dcid_1)
  %15 = icmp ne i32 %14, 0
  br i1 %15, label %17, label %16

16:                                               ; preds = %12, %3
  store i32 1, ptr %8, align 4
  br label %22

17:                                               ; preds = %12
  %18 = load ptr, ptr %7, align 8, !tbaa !82
  %19 = getelementptr inbounds nuw %struct.helper, ptr %18, i32 0, i32 17
  %20 = load ptr, ptr %19, align 8, !tbaa !54
  %21 = load ptr, ptr %4, align 8, !tbaa !118
  call void @ossl_qrx_inject_urxe(ptr noundef %20, ptr noundef %21)
  store i32 0, ptr %8, align 4
  br label %22

22:                                               ; preds = %17, %16
  call void @llvm.lifetime.end.p0(i64 8, ptr %7) #7
  %23 = load i32, ptr %8, align 4
  switch i32 %23, label %25 [
    i32 0, label %24
    i32 1, label %24
  ]

24:                                               ; preds = %22, %22
  ret void

25:                                               ; preds = %22
  unreachable
}