; Function Attrs: nounwind uwtable
define internal void @demux_default_handler(ptr noundef %0, ptr noundef readonly captures(none) %1, ptr noundef readonly captures(address_is_null) %2) #0 {
  %4 = icmp eq ptr %2, null
  br i1 %4, label %ossl_quic_conn_id_eq.exit.thread, label %5

5:                                                ; preds = %3
  %6 = load i8, ptr %2, align 1, !tbaa !111
  %.not.i.not = icmp eq i8 %6, 8
  br i1 %.not.i.not, label %ossl_quic_conn_id_eq.exit, label %ossl_quic_conn_id_eq.exit.thread

ossl_quic_conn_id_eq.exit:                        ; preds = %5
  %7 = getelementptr inbounds nuw i8, ptr %2, i64 1
  %bcmp.i = tail call i32 @bcmp(ptr noundef nonnull readonly dereferenceable(8) %7, ptr noundef nonnull readonly dereferenceable(8) getelementptr inbounds nuw (i8, ptr @dcid_1, i64 1), i64 8)
  %.not = icmp eq i32 %bcmp.i, 0
  br i1 %.not, label %8, label %ossl_quic_conn_id_eq.exit.thread

8:                                                ; preds = %ossl_quic_conn_id_eq.exit
  %9 = getelementptr inbounds nuw i8, ptr %1, i64 1016
  %10 = load ptr, ptr %9, align 8, !tbaa !80
  tail call void @ossl_qrx_inject_urxe(ptr noundef %10, ptr noundef %0) #8
  br label %ossl_quic_conn_id_eq.exit.thread

ossl_quic_conn_id_eq.exit.thread:                 ; preds = %5, %3, %ossl_quic_conn_id_eq.exit, %8
  ret void
}